target datalayout = "e-m:e-p270:32:32-p271:32:32-p272:64:64-i64:64-i128:128-f80:128-n8:16:32:64-S128"
target triple = "x86_64-pc-linux-gnu"

%"class.pxrInternal_v0_24__pxrReserved__::SdfPath" = type { %"struct.pxrInternal_v0_24__pxrReserved__::Sdf_PathNodeHandleImpl", %"struct.pxrInternal_v0_24__pxrReserved__::Sdf_PathNodeHandleImpl.20" }
%"struct.pxrInternal_v0_24__pxrReserved__::Sdf_PathNodeHandleImpl" = type { %"struct.pxrInternal_v0_24__pxrReserved__::Sdf_Pool<pxrInternal_v0_24__pxrReserved__::Sdf_PathPrimTag, 24, 8>::Handle" }
%"struct.pxrInternal_v0_24__pxrReserved__::Sdf_Pool<pxrInternal_v0_24__pxrReserved__::Sdf_PathPrimTag, 24, 8>::Handle" = type { i32 }
%"struct.pxrInternal_v0_24__pxrReserved__::Sdf_PathNodeHandleImpl.20" = type { %"struct.pxrInternal_v0_24__pxrReserved__::Sdf_Pool<pxrInternal_v0_24__pxrReserved__::Sdf_PathPropTag, 24, 8>::Handle" }
%"struct.pxrInternal_v0_24__pxrReserved__::Sdf_Pool<pxrInternal_v0_24__pxrReserved__::Sdf_PathPropTag, 24, 8>::Handle" = type { i32 }
%"class.pxrInternal_v0_24__pxrReserved__::(anonymous namespace)::_FilteredEntries.23" = type { ptr, i8, %"class.pxrInternal_v0_24__pxrReserved__::TfSmallVector.21" }
%"class.pxrInternal_v0_24__pxrReserved__::TfSmallVector.21" = type { %"union.pxrInternal_v0_24__pxrReserved__::TfSmallVectorBase::_DataUnion.22", i32, i32 }
%"union.pxrInternal_v0_24__pxrReserved__::TfSmallVectorBase::_DataUnion.22" = type { ptr, [7416 x i8] }
%"struct.pxrInternal_v0_24__pxrReserved__::HdSceneIndexObserver::DirtiedPrimEntry" = type { %"class.pxrInternal_v0_24__pxrReserved__::SdfPath", %"class.pxrInternal_v0_24__pxrReserved__::HdDataSourceLocatorSet" }
%"class.pxrInternal_v0_24__pxrReserved__::HdDataSourceLocatorSet" = type { %"class.pxrInternal_v0_24__pxrReserved__::TfSmallVector.44" }
%"class.pxrInternal_v0_24__pxrReserved__::TfSmallVector.44" = type { %"union.pxrInternal_v0_24__pxrReserved__::TfSmallVectorBase::_DataUnion.45", i32, i32 }
%"union.pxrInternal_v0_24__pxrReserved__::TfSmallVectorBase::_DataUnion.45" = type { ptr, [440 x i8] }

; Function Attrs: mustprogress nounwind uwtable
define linkonce_odr noundef ptr @_ZN32pxrInternal_v0_24__pxrReserved__17TfSmallVectorBase10_DataUnionILm464ELm8ELm16EE15GetLocalStorageEv(ptr noundef nonnull align 8 dereferenceable(7424) %0) #2 comdat align 2 {
  %2 = alloca ptr, align 8
  store ptr %0, ptr %2, align 8
  %3 = load ptr, ptr %2, align 8
  %4 = getelementptr inbounds [7424 x i8], ptr %3, i64 0, i64 0
  ret ptr %4
}

; Function Attrs: mustprogress uwtable
define linkonce_odr noundef ptr @_ZN32pxrInternal_v0_24__pxrReserved__13TfSmallVectorINS_20HdSceneIndexObserver16DirtiedPrimEntryELj16EE16_GetLocalStorageEv(ptr noundef nonnull align 8 dereferenceable(7432) %0) #0 comdat align 2 {
  %2 = alloca ptr, align 8
  store ptr %0, ptr %2, align 8
  %3 = load ptr, ptr %2, align 8
  %4 = getelementptr inbounds nuw %"class.pxrInternal_v0_24__pxrReserved__::TfSmallVector.21", ptr %3, i32 0, i32 0
  %5 = call noundef ptr @_ZN32pxrInternal_v0_24__pxrReserved__17TfSmallVectorBase10_DataUnionILm464ELm8ELm16EE15GetLocalStorageEv(ptr noundef nonnull align 8 dereferenceable(7424) %4)
  ret ptr %5
}

; Function Attrs: mustprogress nounwind uwtable
define linkonce_odr noundef ptr @_ZN32pxrInternal_v0_24__pxrReserved__17TfSmallVectorBase10_DataUnionILm464ELm8ELm16EE16GetRemoteStorageEv(ptr noundef nonnull align 8 dereferenceable(7424) %0) #2 comdat align 2 {
  %2 = alloca ptr, align 8
  store ptr %0, ptr %2, align 8
  %3 = load ptr, ptr %2, align 8
  %4 = load ptr, ptr %3, align 8
  ret ptr %4
}

; Function Attrs: mustprogress uwtable
define linkonce_odr noundef ptr @_ZN32pxrInternal_v0_24__pxrReserved__13TfSmallVectorINS_20HdSceneIndexObserver16DirtiedPrimEntryELj16EE11_GetStorageEv(ptr noundef nonnull align 8 dereferenceable(7432) %0) #0 comdat align 2 {
  %2 = alloca ptr, align 8
  store ptr %0, ptr %2, align 8
  %3 = load ptr, ptr %2, align 8
  %4 = call noundef zeroext i1 @_ZNK32pxrInternal_v0_24__pxrReserved__13TfSmallVectorINS_20HdSceneIndexObserver16DirtiedPrimEntryELj16EE8_IsLocalEv(ptr noundef nonnull align 8 dereferenceable(7432) %3)
  br i1 %4, label %5, label %7

5:                                                ; preds = %1
  %6 = call noundef ptr @_ZN32pxrInternal_v0_24__pxrReserved__13TfSmallVectorINS_20HdSceneIndexObserver16DirtiedPrimEntryELj16EE16_GetLocalStorageEv(ptr noundef nonnull align 8 dereferenceable(7432) %3)
  br label %9

7:                                                ; preds = %1
  %8 = call noundef ptr @_ZN32pxrInternal_v0_24__pxrReserved__13TfSmallVectorINS_20HdSceneIndexObserver16DirtiedPrimEntryELj16EE17_GetRemoteStorageEv(ptr noundef nonnull align 8 dereferenceable(7432) %3)
  br label %9

9:                                                ; preds = %7, %5
  %10 = phi ptr [ %6, %5 ], [ %8, %7 ]
  ret ptr %10
}

; Function Attrs: mustprogress uwtable
define linkonce_odr noundef ptr @_ZN32pxrInternal_v0_24__pxrReserved__13TfSmallVectorINS_20HdSceneIndexObserver16DirtiedPrimEntryELj16EE17_GetRemoteStorageEv(ptr noundef nonnull align 8 dereferenceable(7432) %0) #0 comdat align 2 {
  %2 = alloca ptr, align 8
  store ptr %0, ptr %2, align 8
  %3 = load ptr, ptr %2, align 8
  %4 = getelementptr inbounds nuw %"class.pxrInternal_v0_24__pxrReserved__::TfSmallVector.21", ptr %3, i32 0, i32 0
  %5 = call noundef ptr @_ZN32pxrInternal_v0_24__pxrReserved__17TfSmallVectorBase10_DataUnionILm464ELm8ELm16EE16GetRemoteStorageEv(ptr noundef nonnull align 8 dereferenceable(7424) %4)
  ret ptr %5
}

; Function Attrs: mustprogress nounwind uwtable
define linkonce_odr noundef zeroext i1 @_ZNK32pxrInternal_v0_24__pxrReserved__13TfSmallVectorINS_20HdSceneIndexObserver16DirtiedPrimEntryELj16EE8_IsLocalEv(ptr noundef nonnull align 8 dereferenceable(7432) %0) #2 comdat align 2 {
  %2 = alloca ptr, align 8
  store ptr %0, ptr %2, align 8
  %3 = load ptr, ptr %2, align 8
  %4 = getelementptr inbounds nuw %"class.pxrInternal_v0_24__pxrReserved__::TfSmallVector.21", ptr %3, i32 0, i32 2
  %5 = load i32, ptr %4, align 4
  %6 = icmp ule i32 %5, 16
  ret i1 %6
}

; Function Attrs: mustprogress nounwind uwtable
define linkonce_odr noundef i64 @_ZNK32pxrInternal_v0_24__pxrReserved__13TfSmallVectorINS_20HdSceneIndexObserver16DirtiedPrimEntryELj16EE4sizeEv(ptr noundef nonnull align 8 dereferenceable(7432) %0) #2 comdat align 2 {
  %2 = alloca ptr, align 8
  store ptr %0, ptr %2, align 8
  %3 = load ptr, ptr %2, align 8
  %4 = getelementptr inbounds nuw %"class.pxrInternal_v0_24__pxrReserved__::TfSmallVector.21", ptr %3, i32 0, i32 1
  %5 = load i32, ptr %4, align 8
  %6 = zext i32 %5 to i64
  ret i64 %6
}

; Function Attrs: mustprogress uwtable
define linkonce_odr noundef ptr @_ZN32pxrInternal_v0_24__pxrReserved__13TfSmallVectorINS_20HdSceneIndexObserver16DirtiedPrimEntryELj16EE4dataEv(ptr noundef nonnull align 8 dereferenceable(7432) %0) #0 comdat align 2 {
  %2 = alloca ptr, align 8
  store ptr %0, ptr %2, align 8
  %3 = load ptr, ptr %2, align 8
  %4 = call noundef ptr @_ZN32pxrInternal_v0_24__pxrReserved__13TfSmallVectorINS_20HdSceneIndexObserver16DirtiedPrimEntryELj16EE11_GetStorageEv(ptr noundef nonnull align 8 dereferenceable(7432) %3)
  ret ptr %4
}

; Function Attrs: noreturn nounwind uwtable
define linkonce_odr hidden void @__clang_call_terminate(ptr noundef %0) #4 comdat {
  %2 = call ptr @__cxa_begin_catch(ptr %0) #13
  call void @_ZSt9terminatev() #15
  unreachable
}

; Function Attrs: mustprogress uwtable
define linkonce_odr void @_ZN32pxrInternal_v0_24__pxrReserved__13TfSmallVectorINS_20HdSceneIndexObserver16DirtiedPrimEntryELj16EE12_FreeStorageEv(ptr noundef nonnull align 8 dereferenceable(7432) %0) #0 comdat align 2 {
  %2 = alloca ptr, align 8
  store ptr %0, ptr %2, align 8
  %3 = load ptr, ptr %2, align 8
  %4 = call noundef zeroext i1 @_ZNK32pxrInternal_v0_24__pxrReserved__13TfSmallVectorINS_20HdSceneIndexObserver16DirtiedPrimEntryELj16EE8_IsLocalEv(ptr noundef nonnull align 8 dereferenceable(7432) %3)
  br i1 %4, label %7, label %5

5:                                                ; preds = %1
  %6 = call noundef ptr @_ZN32pxrInternal_v0_24__pxrReserved__13TfSmallVectorINS_20HdSceneIndexObserver16DirtiedPrimEntryELj16EE17_GetRemoteStorageEv(ptr noundef nonnull align 8 dereferenceable(7432) %3)
  call void @free(ptr noundef %6) #13
  br label %7

7:                                                ; preds = %5, %1
  ret void
}

; Function Attrs: mustprogress uwtable
define linkonce_odr void @_ZN32pxrInternal_v0_24__pxrReserved__13TfSmallVectorINS_20HdSceneIndexObserver16DirtiedPrimEntryELj16EE9_DestructEv(ptr noundef nonnull align 8 dereferenceable(7432) %0) #0 comdat align 2 {
  %2 = alloca ptr, align 8
  %3 = alloca ptr, align 8
  %4 = alloca ptr, align 8
  %5 = alloca ptr, align 8
  store ptr %0, ptr %2, align 8
  %6 = load ptr, ptr %2, align 8
  %7 = call noundef ptr @_ZN32pxrInternal_v0_24__pxrReserved__13TfSmallVectorINS_20HdSceneIndexObserver16DirtiedPrimEntryELj16EE4dataEv(ptr noundef nonnull align 8 dereferenceable(7432) %6)
  store ptr %7, ptr %3, align 8
  %8 = load ptr, ptr %3, align 8
  %9 = call noundef i64 @_ZNK32pxrInternal_v0_24__pxrReserved__13TfSmallVectorINS_20HdSceneIndexObserver16DirtiedPrimEntryELj16EE4sizeEv(ptr noundef nonnull align 8 dereferenceable(7432) %6)
  %10 = getelementptr inbounds %"struct.pxrInternal_v0_24__pxrReserved__::HdSceneIndexObserver::DirtiedPrimEntry", ptr %8, i64 %9
  store ptr %10, ptr %4, align 8
  %11 = load ptr, ptr %3, align 8
  store ptr %11, ptr %5, align 8
  br label %12

12:                                               ; preds = %18, %1
  %13 = load ptr, ptr %5, align 8
  %14 = load ptr, ptr %4, align 8
  %15 = icmp ne ptr %13, %14
  br i1 %15, label %16, label %21

16:                                               ; preds = %12
  %17 = load ptr, ptr %5, align 8
  call void @_ZN32pxrInternal_v0_24__pxrReserved__20HdSceneIndexObserver16DirtiedPrimEntryD2Ev(ptr noundef nonnull align 8 dereferenceable(464) %17) #13
  br label %18

18:                                               ; preds = %16
  %19 = load ptr, ptr %5, align 8
  %20 = getelementptr inbounds %"struct.pxrInternal_v0_24__pxrReserved__::HdSceneIndexObserver::DirtiedPrimEntry", ptr %19, i32 1
  store ptr %20, ptr %5, align 8
  br label %12, !llvm.loop !14

21:                                               ; preds = %12
  ret void
}

; Function Attrs: mustprogress nounwind uwtable
define linkonce_odr void @_ZN32pxrInternal_v0_24__pxrReserved__13TfSmallVectorINS_20HdSceneIndexObserver16DirtiedPrimEntryELj16EED2Ev(ptr noundef nonnull align 8 dereferenceable(7432) %0) unnamed_addr #2 comdat align 2 personality ptr @__gxx_personality_v0 {
  %2 = alloca ptr, align 8
  store ptr %0, ptr %2, align 8
  %3 = load ptr, ptr %2, align 8
  invoke void @_ZN32pxrInternal_v0_24__pxrReserved__13TfSmallVectorINS_20HdSceneIndexObserver16DirtiedPrimEntryELj16EE9_DestructEv(ptr noundef nonnull align 8 dereferenceable(7432) %3)
          to label %4 unwind label %6

4:                                                ; preds = %1
  invoke void @_ZN32pxrInternal_v0_24__pxrReserved__13TfSmallVectorINS_20HdSceneIndexObserver16DirtiedPrimEntryELj16EE12_FreeStorageEv(ptr noundef nonnull align 8 dereferenceable(7432) %3)
          to label %5 unwind label %6

5:                                                ; preds = %4
  ret void

6:                                                ; preds = %4, %1
  %7 = landingpad { ptr, i32 }
          catch ptr null
  %8 = extractvalue { ptr, i32 } %7, 0
  call void @__clang_call_terminate(ptr %8) #15
  unreachable
}

; Function Attrs: mustprogress nounwind uwtable
define internal void @_ZN32pxrInternal_v0_24__pxrReserved__12_GLOBAL__N_116_FilteredEntriesINS_13TfSmallVectorINS_20HdSceneIndexObserver16DirtiedPrimEntryELj16EEEED2Ev(ptr noundef nonnull align 8 dereferenceable(7448) %0) unnamed_addr #2 align 2 {
  %2 = alloca ptr, align 8
  store ptr %0, ptr %2, align 8
  %3 = load ptr, ptr %2, align 8
  %4 = getelementptr inbounds nuw %"class.pxrInternal_v0_24__pxrReserved__::(anonymous namespace)::_FilteredEntries.23", ptr %3, i32 0, i32 2
  call void @_ZN32pxrInternal_v0_24__pxrReserved__13TfSmallVectorINS_20HdSceneIndexObserver16DirtiedPrimEntryELj16EED2Ev(ptr noundef nonnull align 8 dereferenceable(7432) %4) #13
  ret void
}