; Function Attrs: mustprogress nounwind uwtable
define internal fastcc void @_ZN32pxrInternal_v0_24__pxrReserved__12_GLOBAL__N_116_FilteredEntriesINS_13TfSmallVectorINS_20HdSceneIndexObserver16DirtiedPrimEntryELj16EEEED2Ev(ptr noundef nonnull align 8 dereferenceable(7448) %0) unnamed_addr #2 align 2 personality ptr @__gxx_personality_v0 {
  %2 = getelementptr inbounds nuw i8, ptr %0, i64 16
  %3 = getelementptr inbounds i8, ptr %0, i64 7444
  %4 = load i32, ptr %3, align 4
  %5 = icmp ult i32 %4, 17
  %6 = load ptr, ptr %2, align 8
  %spec.select.i.i.i.i = select i1 %5, ptr %2, ptr %6
  %7 = getelementptr inbounds i8, ptr %0, i64 7440
  %8 = load i32, ptr %7, align 8
  %9 = zext i32 %8 to i64
  %10 = getelementptr inbounds %"struct.pxrInternal_v0_24__pxrReserved__::HdSceneIndexObserver::DirtiedPrimEntry", ptr %spec.select.i.i.i.i, i64 %9
  %.not7.i.i = icmp eq i32 %8, 0
  br i1 %.not7.i.i, label %_ZN32pxrInternal_v0_24__pxrReserved__13TfSmallVectorINS_20HdSceneIndexObserver16DirtiedPrimEntryELj16EE9_DestructEv.exit.i, label %.lr.ph.i.i

.lr.ph.i.i:                                       ; preds = %1, %.lr.ph.i.i
  %.08.i.i = phi ptr [ %11, %.lr.ph.i.i ], [ %spec.select.i.i.i.i, %1 ]
  tail call void @_ZN32pxrInternal_v0_24__pxrReserved__20HdSceneIndexObserver16DirtiedPrimEntryD2Ev(ptr noundef nonnull align 8 dereferenceable(464) %.08.i.i) #20
  %11 = getelementptr inbounds i8, ptr %.08.i.i, i64 464
  %.not.i.i = icmp eq ptr %11, %10
  br i1 %.not.i.i, label %_ZN32pxrInternal_v0_24__pxrReserved__13TfSmallVectorINS_20HdSceneIndexObserver16DirtiedPrimEntryELj16EE9_DestructEv.exit.loopexit.i, label %.lr.ph.i.i, !llvm.loop !12

_ZN32pxrInternal_v0_24__pxrReserved__13TfSmallVectorINS_20HdSceneIndexObserver16DirtiedPrimEntryELj16EE9_DestructEv.exit.loopexit.i: ; preds = %.lr.ph.i.i
  %.pre.i = load i32, ptr %3, align 4
  br label %_ZN32pxrInternal_v0_24__pxrReserved__13TfSmallVectorINS_20HdSceneIndexObserver16DirtiedPrimEntryELj16EE9_DestructEv.exit.i

_ZN32pxrInternal_v0_24__pxrReserved__13TfSmallVectorINS_20HdSceneIndexObserver16DirtiedPrimEntryELj16EE9_DestructEv.exit.i: ; preds = %_ZN32pxrInternal_v0_24__pxrReserved__13TfSmallVectorINS_20HdSceneIndexObserver16DirtiedPrimEntryELj16EE9_DestructEv.exit.loopexit.i, %1
  %12 = phi i32 [ %.pre.i, %_ZN32pxrInternal_v0_24__pxrReserved__13TfSmallVectorINS_20HdSceneIndexObserver16DirtiedPrimEntryELj16EE9_DestructEv.exit.loopexit.i ], [ %4, %1 ]
  %13 = icmp ult i32 %12, 17
  br i1 %13, label %_ZN32pxrInternal_v0_24__pxrReserved__13TfSmallVectorINS_20HdSceneIndexObserver16DirtiedPrimEntryELj16EED2Ev.exit, label %14

14:                                               ; preds = %_ZN32pxrInternal_v0_24__pxrReserved__13TfSmallVectorINS_20HdSceneIndexObserver16DirtiedPrimEntryELj16EE9_DestructEv.exit.i
  %15 = load ptr, ptr %2, align 8
  tail call void @free(ptr noundef %15) #20
  br label %_ZN32pxrInternal_v0_24__pxrReserved__13TfSmallVectorINS_20HdSceneIndexObserver16DirtiedPrimEntryELj16EED2Ev.exit

_ZN32pxrInternal_v0_24__pxrReserved__13TfSmallVectorINS_20HdSceneIndexObserver16DirtiedPrimEntryELj16EED2Ev.exit: ; preds = %_ZN32pxrInternal_v0_24__pxrReserved__13TfSmallVectorINS_20HdSceneIndexObserver16DirtiedPrimEntryELj16EE9_DestructEv.exit.i, %14
  ret void
}